target datalayout = "e-m:e-p270:32:32-p271:32:32-p272:64:64-i64:64-i128:128-f80:128-n8:16:32:64-S128"
target triple = "x86_64-unknown-linux-gnu"

%"class.net::HpackDecoder" = type { %"class.net::HpackDecoderInterface", %"class.net::HpackHeaderTable", %"class.std::__cxx11::basic_string", %"class.net::SpdyHeaderBlock", %"class.std::__cxx11::basic_string", %"class.std::__cxx11::basic_string", ptr, i64, i64, i32, i8, i8, i8, i8 }
%"class.net::HpackDecoderInterface" = type { ptr }
%"class.net::HpackHeaderTable" = type { ptr, %"class.std::deque", ptr, ptr, %"class.std::unordered_set", %"class.std::unordered_map", i64, i64, i64, i64, %"class.std::unique_ptr" }
%"class.std::deque" = type { %"class.std::_Deque_base" }
%"class.std::_Deque_base" = type { %"struct.std::_Deque_base<net::HpackEntry, std::allocator<net::HpackEntry>>::_Deque_impl" }
%"struct.std::_Deque_base<net::HpackEntry, std::allocator<net::HpackEntry>>::_Deque_impl" = type { %"struct.std::_Deque_base<net::HpackEntry, std::allocator<net::HpackEntry>>::_Deque_impl_data" }
%"struct.std::_Deque_base<net::HpackEntry, std::allocator<net::HpackEntry>>::_Deque_impl_data" = type { ptr, i64, %"struct.std::_Deque_iterator", %"struct.std::_Deque_iterator" }
%"struct.std::_Deque_iterator" = type { ptr, ptr, ptr, ptr }
%"class.std::unordered_set" = type { %"class.std::_Hashtable" }
%"class.std::_Hashtable" = type { ptr, i64, %"struct.std::__detail::_Hash_node_base", i64, %"struct.std::__detail::_Prime_rehash_policy", ptr }
%"struct.std::__detail::_Hash_node_base" = type { ptr }
%"struct.std::__detail::_Prime_rehash_policy" = type { float, i64 }
%"class.std::unordered_map" = type { %"class.std::_Hashtable.5" }
%"class.std::_Hashtable.5" = type { ptr, i64, %"struct.std::__detail::_Hash_node_base", i64, %"struct.std::__detail::_Prime_rehash_policy", ptr }
%"class.std::unique_ptr" = type { %"struct.std::__uniq_ptr_data" }
%"struct.std::__uniq_ptr_data" = type { %"class.std::__uniq_ptr_impl" }
%"class.std::__uniq_ptr_impl" = type { %"class.std::tuple" }
%"class.std::tuple" = type { %"struct.std::_Tuple_impl" }
%"struct.std::_Tuple_impl" = type { %"struct.std::_Head_base.21" }
%"struct.std::_Head_base.21" = type { ptr }
%"class.net::SpdyHeaderBlock" = type { %class.linked_hash_map, %"class.std::unique_ptr.42" }
%class.linked_hash_map = type { %"class.std::unordered_map.25", %"class.std::__cxx11::list" }
%"class.std::unordered_map.25" = type { %"class.std::_Hashtable.26" }
%"class.std::_Hashtable.26" = type { ptr, i64, %"struct.std::__detail::_Hash_node_base", i64, %"struct.std::__detail::_Prime_rehash_policy", ptr }
%"class.std::__cxx11::list" = type { %"class.std::__cxx11::_List_base" }
%"class.std::__cxx11::_List_base" = type { %"struct.std::__cxx11::_List_base<std::pair<base::BasicStringPiece<std::string>, base::BasicStringPiece<std::string>>, std::allocator<std::pair<base::BasicStringPiece<std::string>, base::BasicStringPiece<std::string>>>>::_List_impl" }
%"struct.std::__cxx11::_List_base<std::pair<base::BasicStringPiece<std::string>, base::BasicStringPiece<std::string>>, std::allocator<std::pair<base::BasicStringPiece<std::string>, base::BasicStringPiece<std::string>>>>::_List_impl" = type { %"struct.std::__detail::_List_node_header" }
%"struct.std::__detail::_List_node_header" = type { %"struct.std::__detail::_List_node_base", i64 }
%"struct.std::__detail::_List_node_base" = type { ptr, ptr }
%"class.std::unique_ptr.42" = type { %"struct.std::__uniq_ptr_data.43" }
%"struct.std::__uniq_ptr_data.43" = type { %"class.std::__uniq_ptr_impl.44" }
%"class.std::__uniq_ptr_impl.44" = type { %"class.std::tuple.45" }
%"class.std::tuple.45" = type { %"struct.std::_Tuple_impl.46" }
%"struct.std::_Tuple_impl.46" = type { %"struct.std::_Head_base.49" }
%"struct.std::_Head_base.49" = type { ptr }
%"class.std::__cxx11::basic_string" = type { %"struct.std::__cxx11::basic_string<char>::_Alloc_hider", i64, %union.anon }
%"struct.std::__cxx11::basic_string<char>::_Alloc_hider" = type { ptr }
%union.anon = type { i64, [8 x i8] }

; Function Attrs: mustprogress nounwind uwtable
define linkonce_odr dso_local noundef i64 @_ZNK3net16HpackHeaderTable19settings_size_boundEv(ptr noundef nonnull align 8 dereferenceable(256) %this) #1 comdat align 2 {
entry:
  %this.addr = alloca ptr, align 8
  store ptr %this, ptr %this.addr, align 8
  %this1 = load ptr, ptr %this.addr, align 8
  %settings_size_bound_ = getelementptr inbounds %"class.net::HpackHeaderTable", ptr %this1, i32 0, i32 6
  %0 = load i64, ptr %settings_size_bound_, align 8
  ret i64 %0
}

; Function Attrs: mustprogress uwtable
define dso_local noundef zeroext i1 @_ZN3net12HpackDecoder31DecodeNextHeaderTableSizeUpdateEPNS_16HpackInputStreamE(ptr noundef nonnull align 8 dereferenceable(480) %this, ptr noundef %input_stream) #0 align 2 {
entry:
  %retval = alloca i1, align 1
  %this.addr = alloca ptr, align 8
  %input_stream.addr = alloca ptr, align 8
  %size = alloca i32, align 4
  store ptr %this, ptr %this.addr, align 8
  store ptr %input_stream, ptr %input_stream.addr, align 8
  %this1 = load ptr, ptr %this.addr, align 8
  store i32 0, ptr %size, align 4
  %0 = load ptr, ptr %input_stream.addr, align 8
  %call = call noundef zeroext i1 @_ZN3net16HpackInputStream16DecodeNextUint32EPj(ptr noundef nonnull align 8 dereferenceable(33) %0, ptr noundef %size)
  br i1 %call, label %if.end, label %if.then

if.then:                                          ; preds = %entry
  store i1 false, ptr %retval, align 1
  br label %return

if.end:                                           ; preds = %entry
  %size_updates_allowed_ = getelementptr inbounds %"class.net::HpackDecoder", ptr %this1, i32 0, i32 12
  %1 = load i8, ptr %size_updates_allowed_, align 2
  %tobool = trunc i8 %1 to i1
  br i1 %tobool, label %if.end3, label %if.then2

if.then2:                                         ; preds = %if.end
  store i1 false, ptr %retval, align 1
  br label %return

if.end3:                                          ; preds = %if.end
  %size_updates_seen_ = getelementptr inbounds %"class.net::HpackDecoder", ptr %this1, i32 0, i32 11
  %2 = load i8, ptr %size_updates_seen_, align 1
  %inc = add i8 %2, 1
  store i8 %inc, ptr %size_updates_seen_, align 1
  %size_updates_seen_4 = getelementptr inbounds %"class.net::HpackDecoder", ptr %this1, i32 0, i32 11
  %3 = load i8, ptr %size_updates_seen_4, align 1
  %conv = zext i8 %3 to i32
  %cmp = icmp sgt i32 %conv, 2
  br i1 %cmp, label %if.then5, label %if.end6

if.then5:                                         ; preds = %if.end3
  store i1 false, ptr %retval, align 1
  br label %return

if.end6:                                          ; preds = %if.end3
  %4 = load i32, ptr %size, align 4
  %conv7 = zext i32 %4 to i64
  %header_table_ = getelementptr inbounds %"class.net::HpackDecoder", ptr %this1, i32 0, i32 1
  %call8 = call noundef i64 @_ZNK3net16HpackHeaderTable19settings_size_boundEv(ptr noundef nonnull align 8 dereferenceable(256) %header_table_)
  %cmp9 = icmp ugt i64 %conv7, %call8
  br i1 %cmp9, label %if.then10, label %if.end11

if.then10:                                        ; preds = %if.end6
  store i1 false, ptr %retval, align 1
  br label %return

if.end11:                                         ; preds = %if.end6
  %header_table_12 = getelementptr inbounds %"class.net::HpackDecoder", ptr %this1, i32 0, i32 1
  %5 = load i32, ptr %size, align 4
  %conv13 = zext i32 %5 to i64
  call void @_ZN3net16HpackHeaderTable10SetMaxSizeEm(ptr noundef nonnull align 8 dereferenceable(256) %header_table_12, i64 noundef %conv13)
  store i1 true, ptr %retval, align 1
  br label %return

return:                                           ; preds = %if.end11, %if.then10, %if.then5, %if.then2, %if.then
  %6 = load i1, ptr %retval, align 1
  ret i1 %6
}