; Function Attrs: mustprogress uwtable
define dso_local noundef zeroext i1 @_ZN3net12HpackDecoder31DecodeNextHeaderTableSizeUpdateEPNS_16HpackInputStreamE(ptr noundef nonnull align 8 dereferenceable(480) %this, ptr noundef nonnull %input_stream) local_unnamed_addr #0 align 2 {
entry:
  %size = alloca i32, align 4
  store i32 0, ptr %size, align 4
  %call = call noundef zeroext i1 @_ZN3net16HpackInputStream16DecodeNextUint32EPj(ptr noundef nonnull align 8 dereferenceable(33) %input_stream, ptr noundef nonnull %size)
  br i1 %call, label %if.end, label %return

if.end:                                           ; preds = %entry
  %size_updates_allowed_ = getelementptr inbounds i8, ptr %this, i64 478
  %0 = load i8, ptr %size_updates_allowed_, align 2
  %1 = and i8 %0, 1
  %tobool.not = icmp eq i8 %1, 0
  br i1 %tobool.not, label %return, label %if.end3

if.end3:                                          ; preds = %if.end
  %size_updates_seen_ = getelementptr inbounds i8, ptr %this, i64 477
  %2 = load i8, ptr %size_updates_seen_, align 1
  %inc = add i8 %2, 1
  store i8 %inc, ptr %size_updates_seen_, align 1
  %cmp = icmp ugt i8 %inc, 2
  br i1 %cmp, label %return, label %if.end6

if.end6:                                          ; preds = %if.end3
  %3 = load i32, ptr %size, align 4
  %conv7 = zext i32 %3 to i64
  %settings_size_bound_.i = getelementptr inbounds i8, ptr %this, i64 224
  %4 = load i64, ptr %settings_size_bound_.i, align 8
  %cmp9 = icmp ult i64 %4, %conv7
  br i1 %cmp9, label %return, label %if.end11

if.end11:                                         ; preds = %if.end6
  %header_table_ = getelementptr inbounds i8, ptr %this, i64 8
  call void @_ZN3net16HpackHeaderTable10SetMaxSizeEm(ptr noundef nonnull align 8 dereferenceable(256) %header_table_, i64 noundef %conv7)
  br label %return

return:                                           ; preds = %if.end6, %if.end3, %if.end, %entry, %if.end11
  %retval.0 = phi i1 [ true, %if.end11 ], [ false, %entry ], [ false, %if.end ], [ false, %if.end3 ], [ false, %if.end6 ]
  ret i1 %retval.0
}